; Function Attrs: mustprogress nofree norecurse nosync nounwind willreturn memory(argmem: read) uwtable
define dso_local noundef zeroext i8 @_ZNK4llvm3pdb21NativeTypeFunctionSig20getCallingConventionEv(ptr nocapture noundef nonnull readonly align 8 dereferenceable(97) %0) unnamed_addr #5 align 2 {
  %2 = getelementptr inbounds nuw i8, ptr %0, i64 96
  %3 = load i8, ptr %2, align 8
  %4 = trunc i8 %3 to i1
  %.in.v = select i1 %4, i64 38, i64 30
  %.in = getelementptr inbounds i8, ptr %0, i64 %.in.v
  %5 = load i8, ptr %.in, align 2
  ret i8 %5
}